; Function Attrs: mustprogress nounwind uwtable
define hidden void @_ZN23PhaseAggressiveCoalesce8coalesceEP5Block(ptr nocapture noundef nonnull readonly align 8 dereferenceable(36) %0, ptr noundef readonly %1) unnamed_addr #0 align 2 {
  %3 = getelementptr inbounds i8, ptr %1, i64 72
  %4 = load i32, ptr %3, align 8
  %.not46 = icmp eq i32 %4, 0
  br i1 %.not46, label %._crit_edge42, label %.lr.ph41

.lr.ph41:                                         ; preds = %2
  %5 = getelementptr inbounds i8, ptr %1, i64 64
  %6 = getelementptr inbounds i8, ptr %0, i64 24
  br label %7

7:                                                ; preds = %.lr.ph41, %._crit_edge
  %8 = phi i32 [ %4, %.lr.ph41 ], [ %57, %._crit_edge ]
  %indvars.iv48 = phi i64 [ 0, %.lr.ph41 ], [ %indvars.iv.next49, %._crit_edge ]
  %9 = load ptr, ptr %5, align 8
  %10 = getelementptr inbounds ptr, ptr %9, i64 %indvars.iv48
  %11 = load ptr, ptr %10, align 8
  %12 = load ptr, ptr %6, align 8
  %13 = getelementptr inbounds i8, ptr %12, i64 72
  %14 = load ptr, ptr %13, align 8
  %15 = getelementptr inbounds i8, ptr %11, i64 24
  %16 = load i32, ptr %15, align 8
  %.not.i.i = icmp ne i32 %16, 0
  tail call void @llvm.assume(i1 %.not.i.i)
  %17 = getelementptr inbounds i8, ptr %11, i64 32
  %18 = load ptr, ptr %17, align 8
  %19 = load ptr, ptr %18, align 8
  %20 = getelementptr inbounds i8, ptr %19, i64 8
  %21 = load ptr, ptr %20, align 8
  %22 = getelementptr inbounds i8, ptr %14, i64 120
  %23 = load ptr, ptr %22, align 8
  br label %24

24:                                               ; preds = %24, %7
  %.030 = phi i32 [ 1, %7 ], [ %33, %24 ]
  %25 = zext i32 %.030 to i64
  %26 = getelementptr inbounds ptr, ptr %21, i64 %25
  %27 = load ptr, ptr %26, align 8
  %28 = getelementptr inbounds i8, ptr %27, i64 40
  %29 = load i32, ptr %28, align 8
  %30 = zext i32 %29 to i64
  %31 = getelementptr inbounds ptr, ptr %23, i64 %30
  %32 = load ptr, ptr %31, align 8
  %.not33 = icmp eq ptr %32, %1
  %33 = add i32 %.030, 1
  br i1 %.not33, label %.preheader, label %24, !llvm.loop !22

.preheader:                                       ; preds = %24
  %34 = getelementptr inbounds i8, ptr %11, i64 40
  %35 = load i32, ptr %34, align 8
  %36 = icmp ugt i32 %35, 1
  br i1 %36, label %.lr.ph, label %._crit_edge

.lr.ph:                                           ; preds = %.preheader, %49
  %indvars.iv = phi i64 [ %indvars.iv.next, %49 ], [ 1, %.preheader ]
  %37 = load i32, ptr %15, align 8
  %38 = zext i32 %37 to i64
  %39 = icmp ult i64 %indvars.iv, %38
  br i1 %39, label %40, label %_ZNK5Block8get_nodeEj.exit

40:                                               ; preds = %.lr.ph
  %41 = load ptr, ptr %17, align 8
  %42 = getelementptr inbounds ptr, ptr %41, i64 %indvars.iv
  %43 = load ptr, ptr %42, align 8
  br label %_ZNK5Block8get_nodeEj.exit

_ZNK5Block8get_nodeEj.exit:                       ; preds = %.lr.ph, %40
  %44 = phi ptr [ %43, %40 ], [ null, %.lr.ph ]
  %45 = getelementptr inbounds i8, ptr %44, i64 44
  %46 = load i32, ptr %45, align 4
  %47 = and i32 %46, 15
  %48 = icmp eq i32 %47, 12
  br i1 %48, label %49, label %._crit_edge.loopexit

49:                                               ; preds = %_ZNK5Block8get_nodeEj.exit
  %50 = getelementptr inbounds i8, ptr %44, i64 8
  %51 = load ptr, ptr %50, align 8
  %52 = getelementptr inbounds ptr, ptr %51, i64 %25
  %53 = load ptr, ptr %52, align 8
  tail call void @_ZN13PhaseCoalesce17combine_these_twoEP4NodeS1_(ptr noundef nonnull align 8 dereferenceable(32) %0, ptr noundef nonnull %44, ptr noundef %53)
  %indvars.iv.next = add nuw nsw i64 %indvars.iv, 1
  %54 = load i32, ptr %34, align 8
  %55 = zext i32 %54 to i64
  %56 = icmp ult i64 %indvars.iv.next, %55
  br i1 %56, label %.lr.ph, label %._crit_edge.loopexit, !llvm.loop !23

._crit_edge.loopexit:                             ; preds = %49, %_ZNK5Block8get_nodeEj.exit
  %.pre = load i32, ptr %3, align 8
  br label %._crit_edge

._crit_edge:                                      ; preds = %._crit_edge.loopexit, %.preheader
  %57 = phi i32 [ %.pre, %._crit_edge.loopexit ], [ %8, %.preheader ]
  %indvars.iv.next49 = add nuw nsw i64 %indvars.iv48, 1
  %58 = zext i32 %57 to i64
  %59 = icmp ult i64 %indvars.iv.next49, %58
  br i1 %59, label %7, label %._crit_edge42, !llvm.loop !24

._crit_edge42:                                    ; preds = %._crit_edge, %2
  %60 = getelementptr inbounds i8, ptr %1, i64 40
  %61 = load i32, ptr %60, align 8
  %62 = add i32 %61, -1
  %63 = getelementptr inbounds i8, ptr %1, i64 24
  %64 = load i32, ptr %63, align 8
  %65 = icmp ugt i32 %64, %62
  br i1 %65, label %66, label %_ZNK5Block7end_idxEv.exit

66:                                               ; preds = %._crit_edge42
  %67 = getelementptr inbounds i8, ptr %1, i64 32
  %68 = load ptr, ptr %67, align 8
  %69 = zext i32 %62 to i64
  %70 = getelementptr inbounds ptr, ptr %68, i64 %69
  %71 = load ptr, ptr %70, align 8
  br label %_ZNK5Block7end_idxEv.exit

_ZNK5Block7end_idxEv.exit:                        ; preds = %._crit_edge42, %66
  %72 = phi ptr [ %71, %66 ], [ null, %._crit_edge42 ]
  %73 = load ptr, ptr %72, align 8
  %74 = getelementptr inbounds i8, ptr %73, i64 32
  %75 = load ptr, ptr %74, align 8
  %76 = tail call noundef ptr %75(ptr noundef nonnull align 8 dereferenceable(52) %72) #9
  %77 = icmp eq ptr %76, %72
  %78 = load i32, ptr %3, align 8
  %79 = select i1 %77, i32 0, i32 %78
  %80 = sub i32 %62, %79
  %81 = icmp ugt i32 %80, 1
  br i1 %81, label %.lr.ph44, label %._crit_edge45

.lr.ph44:                                         ; preds = %_ZNK5Block7end_idxEv.exit
  %82 = getelementptr inbounds i8, ptr %1, i64 32
  %wide.trip.count = zext i32 %80 to i64
  br label %83

83:                                               ; preds = %.lr.ph44, %107
  %indvars.iv51 = phi i64 [ 1, %.lr.ph44 ], [ %indvars.iv.next52, %107 ]
  %84 = load i32, ptr %63, align 8
  %85 = zext i32 %84 to i64
  %86 = icmp ult i64 %indvars.iv51, %85
  br i1 %86, label %87, label %_ZNK5Block8get_nodeEj.exit34

87:                                               ; preds = %83
  %88 = load ptr, ptr %82, align 8
  %89 = getelementptr inbounds ptr, ptr %88, i64 %indvars.iv51
  %90 = load ptr, ptr %89, align 8
  br label %_ZNK5Block8get_nodeEj.exit34

_ZNK5Block8get_nodeEj.exit34:                     ; preds = %83, %87
  %91 = phi ptr [ %90, %87 ], [ null, %83 ]
  %92 = getelementptr inbounds i8, ptr %91, i64 44
  %93 = load i32, ptr %92, align 4
  %94 = and i32 %93, 3
  %95 = icmp eq i32 %94, 2
  br i1 %95, label %96, label %107

96:                                               ; preds = %_ZNK5Block8get_nodeEj.exit34
  %97 = load ptr, ptr %91, align 8
  %98 = getelementptr inbounds i8, ptr %97, i64 240
  %99 = load ptr, ptr %98, align 8
  %100 = tail call noundef i32 %99(ptr noundef nonnull align 8 dereferenceable(64) %91) #9
  %.not = icmp eq i32 %100, 0
  br i1 %.not, label %107, label %101

101:                                              ; preds = %96
  %102 = getelementptr inbounds i8, ptr %91, i64 8
  %103 = load ptr, ptr %102, align 8
  %104 = zext i32 %100 to i64
  %105 = getelementptr inbounds ptr, ptr %103, i64 %104
  %106 = load ptr, ptr %105, align 8
  tail call void @_ZN13PhaseCoalesce17combine_these_twoEP4NodeS1_(ptr noundef nonnull align 8 dereferenceable(32) %0, ptr noundef nonnull %91, ptr noundef %106)
  br label %107

107:                                              ; preds = %_ZNK5Block8get_nodeEj.exit34, %96, %101
  %indvars.iv.next52 = add nuw nsw i64 %indvars.iv51, 1
  %exitcond.not = icmp eq i64 %indvars.iv.next52, %wide.trip.count
  br i1 %exitcond.not, label %._crit_edge45, label %83, !llvm.loop !25

._crit_edge45:                                    ; preds = %107, %_ZNK5Block7end_idxEv.exit
  ret void
}